Certificate:
    Data:
        Version: 3 (0x2)
        Serial Number: 4 (0x4)
    Signature Algorithm: sha256WithRSAEncryption
        Issuer: C=DE, ST=Hamburg, L=Hamburg, O=eBlocker GmbH, OU=MyOrganizationalUnit, CN=eBlocker VPN Test CA 1/name=EasyRSA/emailAddress=jansen@eblocker.com
        Validity
            Not Before: Jul 19 11:58:54 2017 GMT
            Not After : Jul 17 11:58:54 2027 GMT
        Subject: C=DE, ST=Hamburg, L=Hamburg, O=eBlocker GmbH, OU=MyOrganizationalUnit, CN=device:3c970e83da22/name=mja01/emailAddress=jansen@eblocker.com
        Subject Public Key Info:
            Public Key Algorithm: rsaEncryption
                Public-Key: (2048 bit)
                Modulus:
                    00:a8:19:0b:71:41:58:2f:01:8c:87:4e:80:4c:ba:
                    0f:f2:f2:83:82:20:40:31:cd:ff:08:1c:a9:0e:42:
                    db:c2:45:d1:8b:e0:ba:66:4e:06:a1:b4:05:02:71:
                    e4:4d:05:72:69:00:f8:04:53:8d:ff:a5:a1:cd:23:
                    b7:8e:74:57:16:77:bb:3b:03:1a:f1:30:2a:09:f0:
                    b0:1f:56:3c:78:6c:c6:51:a6:be:65:f8:c8:4b:63:
                    c6:ec:ff:12:69:12:1d:17:cc:ed:23:93:ae:02:04:
                    8e:ea:3c:f4:69:08:b6:4b:d2:aa:fb:48:96:63:26:
                    b4:64:be:9c:06:ba:c6:e7:0f:cc:52:29:8f:e7:46:
                    be:80:e6:95:91:bf:98:fe:a2:22:31:2e:4f:ab:50:
                    ed:c4:4f:67:3f:f6:1b:bd:3d:ba:2f:8a:a4:37:fd:
                    67:39:42:39:ec:02:ab:7c:e7:24:b5:39:07:34:39:
                    a6:c0:12:fd:30:59:1e:a8:90:ee:ba:2b:3a:5e:32:
                    a5:77:6f:06:77:27:9b:96:10:86:4a:72:77:cc:69:
                    57:65:6a:8e:2e:f2:55:ae:f6:fd:96:f0:a3:79:f6:
                    c0:25:30:55:1e:f9:e3:4c:3e:e2:26:07:4b:f5:00:
                    55:31:0c:88:c1:a0:28:4e:33:1d:fd:cc:7f:4c:2b:
                    9c:75
                Exponent: 65537 (0x10001)
        X509v3 extensions:
            X509v3 Basic Constraints: 
                CA:FALSE
            Netscape Comment: 
                Easy-RSA Generated Certificate
            X509v3 Subject Key Identifier: 
                E3:30:A1:88:59:16:03:FC:31:0A:26:EF:9F:E3:9C:C5:0A:5D:9A:E9
            X509v3 Authority Key Identifier: 
                keyid:D1:4F:0E:62:1C:DE:E8:6A:41:FC:47:67:AD:80:A2:DC:44:17:FD:C8
                DirName:/C=DE/ST=Hamburg/L=Hamburg/O=eBlocker GmbH/OU=MyOrganizationalUnit/CN=eBlocker VPN Test CA 1/name=EasyRSA/emailAddress=jansen@eblocker.com
                serial:E7:2B:6E:FC:21:32:5B:EA

            X509v3 Extended Key Usage: 
                TLS Web Client Authentication
            X509v3 Key Usage: 
                Digital Signature
            X509v3 Subject Alternative Name: 
                DNS:mja01
    Signature Algorithm: sha256WithRSAEncryption
         e5:82:7c:7e:c4:cd:5f:72:c6:4e:48:b5:df:ee:f9:aa:57:49:
         53:e7:b0:7c:89:27:44:cf:8e:6b:bc:c6:0a:88:dd:cc:4c:88:
         ed:6e:f1:bb:f6:93:8b:63:3e:21:f2:7e:32:92:a5:b1:60:40:
         2b:1e:46:c8:39:f3:60:bf:1c:33:f9:e4:ca:10:e5:80:9a:75:
         d3:b5:15:e0:5e:33:d0:1a:da:9f:c7:85:47:29:5f:37:53:eb:
         e0:0a:52:99:a4:9f:67:0a:19:77:c2:0b:45:59:d5:c5:a3:0c:
         f6:38:11:59:30:20:cf:7f:9c:0c:39:54:55:93:81:fc:db:57:
         f1:8c:d1:85:d4:2f:96:c7:ef:2d:aa:ff:95:4f:ae:ec:29:a8:
         43:53:f5:88:ec:6a:f5:b3:d4:d9:5a:11:49:dc:38:bf:89:65:
         8a:ae:6b:c3:23:0c:6f:cf:57:d0:2e:24:f9:09:00:7c:18:ca:
         bb:24:9b:04:1a:63:52:c2:a4:3a:d2:1a:52:0c:36:06:87:06:
         f2:69:a6:c0:ba:37:bc:28:bf:62:bd:10:7d:37:cc:80:ea:12:
         cd:c6:9c:95:32:a9:79:65:8c:21:c4:e8:c8:6f:e0:86:11:d3:
         e3:3a:f0:6d:e7:24:09:fc:4a:cf:10:a6:8c:83:83:65:4a:ff:
         5d:22:0b:61
-----BEGIN CERTIFICATE-----
MIIFgDCCBGigAwIBAgIBBDANBgkqhkiG9w0BAQsFADCBvzELMAkGA1UEBhMCREUx
EDAOBgNVBAgTB0hhbWJ1cmcxEDAOBgNVBAcTB0hhbWJ1cmcxFjAUBgNVBAoTDWVC
bG9ja2VyIEdtYkgxHTAbBgNVBAsTFE15T3JnYW5pemF0aW9uYWxVbml0MR8wHQYD
VQQDExZlQmxvY2tlciBWUE4gVGVzdCBDQSAxMRAwDgYDVQQpEwdFYXN5UlNBMSIw
IAYJKoZIhvcNAQkBFhNqYW5zZW5AZWJsb2NrZXIuY29tMB4XDTE3MDcxOTExNTg1
NFoXDTI3MDcxNzExNTg1NFowgboxCzAJBgNVBAYTAkRFMRAwDgYDVQQIEwdIYW1i
dXJnMRAwDgYDVQQHEwdIYW1idXJnMRYwFAYDVQQKEw1lQmxvY2tlciBHbWJIMR0w
GwYDVQQLExRNeU9yZ2FuaXphdGlvbmFsVW5pdDEcMBoGA1UEAxMTZGV2aWNlOjNj
OTcwZTgzZGEyMjEOMAwGA1UEKRMFbWphMDExIjAgBgkqhkiG9w0BCQEWE2phbnNl
bkBlYmxvY2tlci5jb20wggEiMA0GCSqGSIb3DQEBAQUAA4IBDwAwggEKAoIBAQCo
GQtxQVgvAYyHToBMug/y8oOCIEAxzf8IHKkOQtvCRdGL4LpmTgahtAUCceRNBXJp
APgEU43/paHNI7eOdFcWd7s7AxrxMCoJ8LAfVjx4bMZRpr5l+MhLY8bs/xJpEh0X
zO0jk64CBI7qPPRpCLZL0qr7SJZjJrRkvpwGusbnD8xSKY/nRr6A5pWRv5j+oiIx
Lk+rUO3ET2c/9hu9PboviqQ3/Wc5QjnsAqt85yS1OQc0OabAEv0wWR6okO66Kzpe
MqV3bwZ3J5uWEIZKcnfMaVdlao4u8lWu9v2W8KN59sAlMFUe+eNMPuImB0v1AFUx
DIjBoChOMx39zH9MK5x1AgMBAAGjggGIMIIBhDAJBgNVHRMEAjAAMC0GCWCGSAGG
+EIBDQQgFh5FYXN5LVJTQSBHZW5lcmF0ZWQgQ2VydGlmaWNhdGUwHQYDVR0OBBYE
FOMwoYhZFgP8MQom75/jnMUKXZrpMIH0BgNVHSMEgewwgemAFNFPDmIc3uhqQfxH
Z62AotxEF/3IoYHFpIHCMIG/MQswCQYDVQQGEwJERTEQMA4GA1UECBMHSGFtYnVy
ZzEQMA4GA1UEBxMHSGFtYnVyZzEWMBQGA1UEChMNZUJsb2NrZXIgR21iSDEdMBsG
A1UECxMUTXlPcmdhbml6YXRpb25hbFVuaXQxHzAdBgNVBAMTFmVCbG9ja2VyIFZQ
TiBUZXN0IENBIDExEDAOBgNVBCkTB0Vhc3lSU0ExIjAgBgkqhkiG9w0BCQEWE2ph
bnNlbkBlYmxvY2tlci5jb22CCQDnK278ITJb6jATBgNVHSUEDDAKBggrBgEFBQcD
AjALBgNVHQ8EBAMCB4AwEAYDVR0RBAkwB4IFbWphMDEwDQYJKoZIhvcNAQELBQAD
ggEBAOWCfH7EzV9yxk5Itd/u+apXSVPnsHyJJ0TPjmu8xgqI3cxMiO1u8bv2k4tj
PiHyfjKSpbFgQCseRsg582C/HDP55MoQ5YCaddO1FeBeM9Aa2p/HhUcpXzdT6+AK
Upmkn2cKGXfCC0VZ1cWjDPY4EVkwIM9/nAw5VFWTgfzbV/GM0YXUL5bH7y2q/5VP
ruwpqENT9YjsavWz1NlaEUncOL+JZYqua8MjDG/PV9AuJPkJAHwYyrskmwQaY1LC
pDrSGlIMNgaHBvJppsC6N7wov2K9EH03zIDqEs3GnJUyqXlljCHE6Mhv4IYR0+M6
8G3nJAn8Ss8QpoyDg2VK/10iC2E=
-----END CERTIFICATE-----
